; Function Attrs: mustprogress uwtable
define noundef ptr @_ZN6google8protobuf8internal18EpsCopyInputStream12SkipFallbackEPKci(ptr noundef nonnull align 8 dereferenceable(88) %0, ptr noundef %1, i32 noundef %2) local_unnamed_addr #3 align 2 personality ptr @__gxx_personality_v0 {
  %4 = getelementptr inbounds nuw i8, ptr %0, i64 8
  %5 = load ptr, ptr %4, align 8, !tbaa !13
  %6 = getelementptr inbounds nuw i8, ptr %5, i64 16
  %7 = ptrtoint ptr %6 to i64
  %8 = ptrtoint ptr %1 to i64
  %9 = sub i64 %7, %8
  %10 = trunc i64 %9 to i32
  %11 = getelementptr inbounds nuw i8, ptr %0, i64 16
  %12 = getelementptr inbounds nuw i8, ptr %0, i64 28
  br label %13

13:                                               ; preds = %23, %3
  %.020.i = phi i32 [ %2, %3 ], [ %17, %23 ]
  %.0.i = phi i32 [ %10, %3 ], [ %30, %23 ]
  %14 = load ptr, ptr %11, align 8, !tbaa !3
  %15 = icmp eq ptr %14, null
  br i1 %15, label %"_ZN6google8protobuf8internal18EpsCopyInputStream10AppendSizeIZNS2_12SkipFallbackEPKciE3$_0EES5_S5_iRKT_.exit", label %16

16:                                               ; preds = %13
  %17 = sub nsw i32 %.020.i, %.0.i
  %18 = load i32, ptr %12, align 4, !tbaa !24
  %19 = icmp slt i32 %18, 17
  br i1 %19, label %"_ZN6google8protobuf8internal18EpsCopyInputStream10AppendSizeIZNS2_12SkipFallbackEPKciE3$_0EES5_S5_iRKT_.exit", label %20

20:                                               ; preds = %16
  %21 = tail call noundef ptr @_ZN6google8protobuf8internal18EpsCopyInputStream4NextEv(ptr noundef nonnull align 8 dereferenceable(88) %0)
  %22 = icmp eq ptr %21, null
  br i1 %22, label %"_ZN6google8protobuf8internal18EpsCopyInputStream10AppendSizeIZNS2_12SkipFallbackEPKciE3$_0EES5_S5_iRKT_.exit", label %23

23:                                               ; preds = %20
  %24 = getelementptr inbounds nuw i8, ptr %21, i64 16
  %25 = load ptr, ptr %4, align 8, !tbaa !13
  %26 = getelementptr inbounds nuw i8, ptr %25, i64 16
  %27 = ptrtoint ptr %26 to i64
  %28 = ptrtoint ptr %24 to i64
  %29 = sub i64 %27, %28
  %30 = trunc i64 %29 to i32
  %31 = icmp sgt i32 %17, %30
  br i1 %31, label %13, label %32, !llvm.loop !33

32:                                               ; preds = %23
  %33 = sext i32 %17 to i64
  %34 = getelementptr inbounds i8, ptr %24, i64 %33
  br label %"_ZN6google8protobuf8internal18EpsCopyInputStream10AppendSizeIZNS2_12SkipFallbackEPKciE3$_0EES5_S5_iRKT_.exit"

"_ZN6google8protobuf8internal18EpsCopyInputStream10AppendSizeIZNS2_12SkipFallbackEPKciE3$_0EES5_S5_iRKT_.exit": ; preds = %13, %16, %20, %32
  %.019.i = phi ptr [ %34, %32 ], [ null, %20 ], [ null, %16 ], [ null, %13 ]
  ret ptr %.019.i
}